(dp0
(I25
I400
tp1
cnumpy.core.multiarray
scalar
p2
(cnumpy
dtype
p3
(S'f8'
p4
I0
I1
tp5
Rp6
(I3
S'<'
p7
NNNI-1
I-1
I0
tp8
bS'$w\x9f\xe8\xc9\x0f\x12?'
p9
tp10
Rp11
s(I7
I250
tp12
g2
(g6
S'\x9fb\x1b\x94\x91^\x7f?'
p13
tp14
Rp15
s(I3
I350
tp16
g2
(g6
S',\xb85\xf3u4\xab?'
p17
tp18
Rp19
s(I15
I50
tp20
g2
(g6
S'\x91\xae\xb4\xeb\xd1\x90_?'
p21
tp22
Rp23
s(I9
I300
tp24
g2
(g6
S'\x9fC\x84\xb0\x1dWp?'
p25
tp26
Rp27
s(I9
I0
tp28
g2
(g6
S'Zqd\x86\x8b\x87X?'
p29
tp30
Rp31
s(I30
I0
tp32
g2
(g6
S'\xefG\xfa\x10\x90\xcf1?'
p33
tp34
Rp35
s(I80
I100
tp36
g2
(g6
S'.\xa2\x9c\xe9\x0b\xf31?'
p37
tp38
Rp39
s(I40
I0
tp40
g2
(g6
S'\xd5\xeb\xf0\xf4F\xf6*?'
p41
tp42
Rp43
s(I5
I250
tp44
g2
(g6
S'|\xf9\xae\x12\xa6q\x91?'
p45
tp46
Rp47
s(I50
I50
tp48
g2
(g6
S'n81\x92\x90*5?'
p49
tp50
Rp51
s(I30
I100
tp52
g2
(g6
S"|\xa12'\x1d2M?"
p53
tp54
Rp55
s(I7
I200
tp56
g2
(g6
S'\x943\xaaVJ\xae\x80?'
p57
tp58
Rp59
s(I80
I400
tp60
g2
(g6
S'Z$\x14\xf6b\r\xf4>'
p61
tp62
Rp63
s(I25
I100
tp64
g2
(g6
S'\xe9\x9b\xba\xef\xe3*P?'
p65
tp66
Rp67
s(I3
I400
tp68
g2
(g6
S'\xb0\xfd\x82\x9bH\xef}?'
p69
tp70
Rp71
s(I60
I300
tp72
g2
(g6
S'\xe4oP\xcb0F3?'
p73
tp74
Rp75
s(I80
I50
tp76
g2
(g6
S'\xb1k4\xdfC\xee,?'
p77
tp78
Rp79
s(I9
I250
tp80
g2
(g6
S'\xcbg\x1f\xde\xf0\x98t?'
p81
tp82
Rp83
s(I5
I100
tp84
g2
(g6
S'\x89\x99mG\xcb\x06\x91?'
p85
tp86
Rp87
s(I25
I350
tp88
g2
(g6
S'O\x93\xa2\xfb#j@?'
p89
tp90
Rp91
s(I25
I200
tp92
g2
(g6
S'B\x82\x7fu\xa7\x9dQ?'
p93
tp94
Rp95
s(I15
I350
tp96
g2
(g6
S'q}\xe8\xe3,\xe2S?'
p97
tp98
Rp99
s(I60
I400
tp100
g2
(g6
S'\xb9\x941\xea\x1b~\xfa>'
p101
tp102
Rp103
s(I60
I200
tp104
g2
(g6
S'\xcc\x90\xdc\xb2\xb2\xd69?'
p105
tp106
Rp107
s(I12
I50
tp108
g2
(g6
S'\xaa\x850c\x0fLe?'
p109
tp110
Rp111
s(I12
I200
tp112
g2
(g6
S'\xd3\xc5G\xa8=\xcbl?'
p113
tp114
Rp115
s(I15
I300
tp116
g2
(g6
S'}\xb1P\xa4\xb1\xd5_?'
p117
tp118
Rp119
s(I60
I350
tp120
g2
(g6
S'J\xcd\x972\xa4\x13(?'
p121
tp122
Rp123
s(I60
I0
tp124
g2
(g6
S'\xee\x16\xf9\x13\x08\xef\x1c?'
p125
tp126
Rp127
s(I5
I50
tp128
g2
(g6
S'\x9f>\xdb\x97yq\x8b?'
p129
tp130
Rp131
s(I50
I250
tp132
g2
(g6
S'G\x17\xaf\xc4y\xe8:?'
p133
tp134
Rp135
s(I7
I100
tp136
g2
(g6
S'\xc2\xf2\x81\x7fi\x9e~?'
p137
tp138
Rp139
s(I80
I0
tp140
g2
(g6
S'\xbbk\x17$d\xe6\x15?'
p141
tp142
Rp143
s(I20
I100
tp144
g2
(g6
S'4\xe5~\xc4\xc94[?'
p145
tp146
Rp147
s(I50
I150
tp148
g2
(g6
S'\x08iA\x96(R<?'
p149
tp150
Rp151
s(I12
I300
tp152
g2
(g6
S'\x976\xdc[\x87ze?'
p153
tp154
Rp155
s(I15
I0
tp156
g2
(g6
S'\x12\x10n\xf2\x03\xe5G?'
p157
tp158
Rp159
s(I20
I0
tp160
g2
(g6
S'.\x0e\x0e\x99\xd9\x98@?'
p161
tp162
Rp163
s(I40
I350
tp164
g2
(g6
S'\xea\xe3\x17C\x9eo6?'
p165
tp166
Rp167
s(I25
I0
tp168
g2
(g6
S'\x93X\x10i\xd6\xb93?'
p169
tp170
Rp171
s(I9
I350
tp172
g2
(g6
S'\x98\xa4s\xf6kid?'
p173
tp174
Rp175
s(I80
I250
tp176
g2
(g6
S'\xfbT{_\xb1c2?'
p177
tp178
Rp179
s(I30
I350
tp180
g2
(g6
S'\x02\x05\xfa)U\xa4=?'
p181
tp182
Rp183
s(I9
I50
tp184
g2
(g6
S'\xfc\x9d?\x97\xc33p?'
p185
tp186
Rp187
s(I15
I250
tp188
g2
(g6
S'i\x14@\xf0v\x10d?'
p189
tp190
Rp191
s(I12
I250
tp192
g2
(g6
S'W\x85\xab\xb3\x0e\x13k?'
p193
tp194
Rp195
s(I3
I50
tp196
g2
(g6
S";;\xea\x9a'\x98\xb5?"
p197
tp198
Rp199
s(I30
I400
tp200
g2
(g6
S'Ycg\xb9\xe0N\x10?'
p201
tp202
Rp203
s(I20
I200
tp204
g2
(g6
S'\xbb+\x19z\xb2\xa4]?'
p205
tp206
Rp207
s(I7
I150
tp208
g2
(g6
S'1\xfaB\xde\x1b\x82\x80?'
p209
tp210
Rp211
s(I40
I400
tp212
g2
(g6
S'5\xf4\x8c\xb0\xf0\xaf\x08?'
p213
tp214
Rp215
s(I12
I150
tp216
g2
(g6
S'\x9c\xcc%\xe1\xf9~l?'
p217
tp218
Rp219
s(I5
I200
tp220
g2
(g6
S'>\xeb\xd6\xc3A\x8d\x92?'
p221
tp222
Rp223
s(I5
I350
tp224
g2
(g6
S'r\xe4U\xa0gI\x81?'
p225
tp226
Rp227
s(I30
I300
tp228
g2
(g6
S'\x19\x82z\x81\xb3\xbaG?'
p229
tp230
Rp231
s(I50
I300
tp232
g2
(g6
S'\xef\xb2Gu\xbfX5?'
p233
tp234
Rp235
s(I40
I300
tp236
g2
(g6
S'\xdf\x9f\x90\xde\xf2\xf5A?'
p237
tp238
Rp239
s(I80
I200
tp240
g2
(g6
S'\xe3%FH\xac\x8e3?'
p241
tp242
Rp243
s(I9
I400
tp244
g2
(g6
S'\x94\x9b\x84I\xbfu6?'
p245
tp246
Rp247
s(I80
I150
tp248
g2
(g6
S'.\x8b\xede\xdfZ3?'
p249
tp250
Rp251
s(I50
I350
tp252
g2
(g6
S'\x00\x90\t\xc1e\xaa*?'
p253
tp254
Rp255
s(I60
I100
tp256
g2
(g6
S'\x13\x10\xc2\xed\xdd\xb67?'
p257
tp258
Rp259
s(I3
I0
tp260
g2
(g6
S'\xe3\xea\x1d4\xb3X\xa0?'
p261
tp262
Rp263
s(I5
I300
tp264
g2
(g6
S'\x0c\xd5,\xa2Z\xad\x8b?'
p265
tp266
Rp267
s(I9
I150
tp268
g2
(g6
S'^gl\x9f\xcc\xadu?'
p269
tp270
Rp271
s(I30
I150
tp272
g2
(g6
S'o\x9f\xbdjd{O?'
p273
tp274
Rp275
s(I7
I400
tp276
g2
(g6
S'Z3\xe2\xed]\x1aA?'
p277
tp278
Rp279
s(I12
I400
tp280
g2
(g6
S'MH\xdf\x94\xcc\x85-?'
p281
tp282
Rp283
s(I60
I250
tp284
g2
(g6
S'\x1e\x1f\xd3L\xb1K8?'
p285
tp286
Rp287
s(I3
I100
tp288
g2
(g6
S'\x1boN\xe5\xa1\xcb\xba?'
p289
tp290
Rp291
s(I40
I250
tp292
g2
(g6
S'\xcd\x91i\x8a\xd9\xa3F?'
p293
tp294
Rp295
s(I30
I250
tp296
g2
(g6
S'I/7\xfbV\xe9M?'
p297
tp298
Rp299
s(I60
I150
tp300
g2
(g6
S'05Z\xbbB\x929?'
p301
tp302
Rp303
s(I7
I50
tp304
g2
(g6
S'\x8a\xe9\xa81\xf3\xacx?'
p305
tp306
Rp307
s(I12
I350
tp308
g2
(g6
S'b\xf3\x17s\x98\xd4Z?'
p309
tp310
Rp311
s(I5
I0
tp312
g2
(g6
S'(\x8a\xe5\x0c$\xc6t?'
p313
tp314
Rp315
s(I5
I150
tp316
g2
(g6
S'Dl\x12\xaf\x1e\\\x92?'
p317
tp318
Rp319
s(I80
I350
tp320
g2
(g6
S'\x9a\x11\x18\x85D9"?'
p321
tp322
Rp323
s(I50
I400
tp324
g2
(g6
S'\x0b\x87\x03\xee]W\xfd>'
p325
tp326
Rp327
s(I40
I200
tp328
g2
(g6
S'X\xed\xc6\xfd\xef\x13H?'
p329
tp330
Rp331
s(I15
I200
tp332
g2
(g6
S'\x12s}\xee\xacVe?'
p333
tp334
Rp335
s(I20
I50
tp336
g2
(g6
S'\x928I=\xe6\xecU?'
p337
tp338
Rp339
s(I7
I0
tp340
g2
(g6
S'\xdb3\xf9H\xcd\xadb?'
p341
tp342
Rp343
s(I3
I150
tp344
g2
(g6
S'\r~\x9b\xd6\xca\xe4\xbc?'
p345
tp346
Rp347
s(I12
I0
tp348
g2
(g6
S'A\xb5\xcc\x13\x19\x1fP?'
p349
tp350
Rp351
s(I7
I300
tp352
g2
(g6
S'\xd3\xa1\xaeI\xca\xe2x?'
p353
tp354
Rp355
s(I25
I150
tp356
g2
(g6
S'M)\xf1\xff\xfenQ?'
p357
tp358
Rp359
s(I25
I300
tp360
g2
(g6
S'\rd\xd6\xd1\xe4GJ?'
p361
tp362
Rp363
s(I9
I100
tp364
g2
(g6
S'E\x98\x00\xec\xc4\x1at?'
p365
tp366
Rp367
s(I3
I250
tp368
g2
(g6
S'\x1fU\xfa`\xcbs\xbb?'
p369
tp370
Rp371
s(I30
I50
tp372
g2
(g6
S'p\xbe\xcd\xfe\\\x87G?'
p373
tp374
Rp375
s(I80
I300
tp376
g2
(g6
S'*DG\xc4c--?'
p377
tp378
Rp379
s(I20
I250
tp380
g2
(g6
S'm8\x1f/\x87\xdf[?'
p381
tp382
Rp383
s(I40
I150
tp384
g2
(g6
S'\xe5T\x88\xed)\xd4G?'
p385
tp386
Rp387
s(I50
I100
tp388
g2
(g6
S'\xc0\xc0g\xb2\xa5C:?'
p389
tp390
Rp391
s(I50
I0
tp392
g2
(g6
S'\xfc\x17\xe4\x1d\xbe\x05 ?'
p393
tp394
Rp395
s(I25
I50
tp396
g2
(g6
S'\xb5\x10i#\t\x0fJ?'
p397
tp398
Rp399
s(I3
I200
tp400
g2
(g6
S')!9\x1c\x1f2\xbd?'
p401
tp402
Rp403
s(I7
I350
tp404
g2
(g6
S'\xac\xce\xb1\xb42\x16o?'
p405
tp406
Rp407
s(I40
I100
tp408
g2
(g6
S'*\xed]v*\x19F?'
p409
tp410
Rp411
s(I60
I50
tp412
g2
(g6
S' \xf52\xc2}\x1c3?'
p413
tp414
Rp415
s(I15
I150
tp416
g2
(g6
S'\x168\x8eB(\x1ee?'
p417
tp418
Rp419
s(I20
I300
tp420
g2
(g6
S'M{H&\xbd\x1cV?'
p421
tp422
Rp423
s(I3
I300
tp424
g2
(g6
S'{\x0b\xe8\x9bE\xc7\xb5?'
p425
tp426
Rp427
s(I20
I150
tp428
g2
(g6
S'G\x9a1\xbc.V]?'
p429
tp430
Rp431
s(I9
I200
tp432
g2
(g6
S'\x93\x9eh\xba\xd1\xe7u?'
p433
tp434
Rp435
s(I30
I200
tp436
g2
(g6
S'\x1a\xf0\xb7\x06\xa6\xcfO?'
p437
tp438
Rp439
s(I25
I250
tp440
g2
(g6
S'SGL\xaaZ\x90P?'
p441
tp442
Rp443
s(I15
I100
tp444
g2
(g6
S'P\r\t\xfe\x8e\x95c?'
p445
tp446
Rp447
s(I5
I400
tp448
g2
(g6
S'\x0c\x18L\x9ft\x05S?'
p449
tp450
Rp451
s(I20
I350
tp452
g2
(g6
S'\xc8\xd9\x8959\x9fK?'
p453
tp454
Rp455
s(I12
I100
tp456
g2
(g6
S'\xb3\xea\x97\xca5mj?'
p457
tp458
Rp459
s(I40
I50
tp460
g2
(g6
S'\xce@\x8bI\x17\xcfA?'
p461
tp462
Rp463
s(I50
I200
tp464
g2
(g6
S'\x13b\x0ck\xf4\x9d<?'
p465
tp466
Rp467
s(I15
I400
tp468
g2
(g6
S'A\x05j\x17\xee\xe0%?'
p469
tp470
Rp471
s(I20
I400
tp472
g2
(g6
S'\x90\xbd\xeaQ\xc2d\x1e?'
p473
tp474
Rp475
s.